; Function Attrs: mustprogress nofree norecurse nosync nounwind willreturn memory(argmem: write) uwtable
define range(i32 0, 2) i32 @ossl_rsa_pss_params_30_set_saltlen(ptr noundef writeonly captures(address_is_null) %0, i32 noundef %1) local_unnamed_addr #6 {
  %3 = icmp eq ptr %0, null
  br i1 %3, label %6, label %4

4:                                                ; preds = %2
  %5 = getelementptr inbounds nuw i8, ptr %0, i64 12
  store i32 %1, ptr %5, align 4, !tbaa !32
  br label %6

6:                                                ; preds = %2, %4
  %.0 = phi i32 [ 1, %4 ], [ 0, %2 ]
  ret i32 %.0
}